; Function Attrs: nounwind sspstrong uwtable
define internal range(i32 -2147483648, 1) i32 @sigraise_f(ptr readnone captures(none) %0, i32 %1, ptr noundef readonly captures(none) %2) #0 {
  %4 = alloca i64, align 8
  %5 = getelementptr inbounds nuw i8, ptr %2, i64 8
  %6 = load ptr, ptr %5, align 8
  call void @llvm.lifetime.start.p0(i64 8, ptr nonnull %4) #26
  store i64 0, ptr %4, align 8, !annotation !8
  %7 = call i32 @qemu_strtosz(ptr noundef %6, ptr noundef null, ptr noundef nonnull %4) #26
  %8 = icmp slt i32 %7, 0
  %9 = sext i32 %7 to i64
  %10 = load i64, ptr %4, align 8
  %11 = icmp slt i64 %10, 0
  %..i = select i1 %11, i64 -34, i64 %10
  %.0.i = select i1 %8, i64 %9, i64 %..i
  call void @llvm.lifetime.end.p0(i64 8, ptr nonnull %4) #26
  %12 = icmp slt i64 %.0.i, 0
  br i1 %12, label %13, label %17

13:                                               ; preds = %3
  %14 = load ptr, ptr %5, align 8
  %switch.selectcmp.i = icmp eq i64 %.0.i, -34
  %switch.select.i = select i1 %switch.selectcmp.i, ptr @.str.31, ptr @.str.32
  %switch.selectcmp3.i = icmp eq i64 %.0.i, -22
  %switch.select4.i = select i1 %switch.selectcmp3.i, ptr @.str.30, ptr %switch.select.i
  %15 = call i32 (i32, ptr, ...) @__printf_chk(i32 noundef 1, ptr noundef nonnull %switch.select4.i, ptr noundef %14) #26
  %16 = trunc nsw i64 %.0.i to i32
  br label %29

17:                                               ; preds = %3
  %18 = icmp samesign ugt i64 %.0.i, 65
  br i1 %18, label %19, label %22

19:                                               ; preds = %17
  %20 = load ptr, ptr %5, align 8
  %21 = call i32 (i32, ptr, ...) @__printf_chk(i32 noundef 1, ptr noundef nonnull @.str.214, ptr noundef %20) #26
  br label %29

22:                                               ; preds = %17
  %23 = load ptr, ptr @stdout, align 8
  %24 = call i32 @fflush(ptr noundef %23)
  %25 = load ptr, ptr @stderr, align 8
  %26 = call i32 @fflush(ptr noundef %25)
  %27 = trunc nuw nsw i64 %.0.i to i32
  %28 = call i32 @raise(i32 noundef %27) #26
  br label %29

29:                                               ; preds = %22, %19, %13
  %.0 = phi i32 [ %16, %13 ], [ -22, %19 ], [ 0, %22 ]
  ret i32 %.0
}